target datalayout = "e-m:e-p270:32:32-p271:32:32-p272:64:64-i64:64-i128:128-f80:128-n8:16:32:64-S128"
target triple = "x86_64-pc-linux-gnu"

%struct._GLFWlibrary = type { i32, %struct.GLFWallocator, %struct._GLFWplatform, %struct.anon.7, ptr, ptr, ptr, ptr, i32, i32, [16 x %struct._GLFWjoystick], ptr, i32, %struct._GLFWtls, %struct._GLFWtls, %struct._GLFWmutex, %struct.anon.16, %struct.anon.17, %struct.anon.18, %struct.anon.19, %struct.anon.20, %struct._GLFWlibraryWayland, %struct._GLFWlibraryX11, %struct._GLFWlibraryNull, %struct._GLFWlibraryGLX, %struct._GLFWlibraryLinux }
%struct.GLFWallocator = type { ptr, ptr, ptr, ptr }
%struct._GLFWplatform = type { i32, ptr, ptr, ptr, ptr, ptr, ptr, ptr, ptr, ptr, ptr, ptr, ptr, ptr, ptr, ptr, ptr, ptr, ptr, ptr, ptr, ptr, ptr, ptr, ptr, ptr, ptr, ptr, ptr, ptr, ptr, ptr, ptr, ptr, ptr, ptr, ptr, ptr, ptr, ptr, ptr, ptr, ptr, ptr, ptr, ptr, ptr, ptr, ptr, ptr, ptr, ptr, ptr, ptr, ptr, ptr, ptr, ptr, ptr, ptr, ptr, ptr, ptr, ptr, ptr, ptr, ptr, ptr, ptr, ptr, ptr, ptr }
%struct.anon.7 = type { %struct._GLFWinitconfig, %struct._GLFWfbconfig, %struct._GLFWwndconfig, %struct._GLFWctxconfig, i32 }
%struct._GLFWinitconfig = type { i32, i32, i32, ptr, %struct.anon.8, %struct.anon.9, %struct.anon.10 }
%struct.anon.8 = type { i32, i32 }
%struct.anon.9 = type { i32 }
%struct.anon.10 = type { i32 }
%struct._GLFWfbconfig = type { i32, i32, i32, i32, i32, i32, i32, i32, i32, i32, i32, i32, i32, i32, i32, i32, i64 }
%struct._GLFWwndconfig = type { i32, i32, i32, i32, ptr, i32, i32, i32, i32, i32, i32, i32, i32, i32, i32, i32, i32, %struct.anon.11, %struct.anon.12, %struct.anon.13, %struct.anon.14 }
%struct.anon.11 = type { [256 x i8] }
%struct.anon.12 = type { [256 x i8], [256 x i8] }
%struct.anon.13 = type { i32, i32 }
%struct.anon.14 = type { [256 x i8] }
%struct._GLFWctxconfig = type { i32, i32, i32, i32, i32, i32, i32, i32, i32, i32, ptr, %struct.anon.15 }
%struct.anon.15 = type { i32 }
%struct._GLFWjoystick = type { i32, i32, ptr, i32, ptr, i32, ptr, i32, [128 x i8], ptr, [33 x i8], ptr, %struct._GLFWjoystickLinux }
%struct._GLFWjoystickLinux = type { i32, [4096 x i8], [512 x i32], [64 x i32], [64 x %struct.input_absinfo], [4 x [2 x i32]] }
%struct.input_absinfo = type { i32, i32, i32, i32, i32, i32 }
%struct._GLFWtls = type { %struct._GLFWtlsPOSIX }
%struct._GLFWtlsPOSIX = type { i32, i32 }
%struct._GLFWmutex = type { %struct._GLFWmutexPOSIX }
%struct._GLFWmutexPOSIX = type { i32, %union.pthread_mutex_t }
%union.pthread_mutex_t = type { %struct.__pthread_mutex_s }
%struct.__pthread_mutex_s = type { i32, i32, i32, i32, i32, i16, i16, %struct.__pthread_internal_list }
%struct.__pthread_internal_list = type { ptr, ptr }
%struct.anon.16 = type { i64, %struct._GLFWtimerPOSIX }
%struct._GLFWtimerPOSIX = type { i32, i64 }
%struct.anon.17 = type { i32, ptr, i32, i32, i32, i32, i32, i32, i32, i32, i32, i32, i32, i32, i32, i32, i32, i32, i32, i32, ptr, ptr, ptr, ptr, ptr, ptr, ptr, ptr, ptr, ptr, ptr, ptr, ptr, ptr, ptr, ptr, ptr, ptr, ptr }
%struct.anon.18 = type { ptr, ptr, ptr, ptr, ptr, ptr, ptr, ptr }
%struct.anon.19 = type { i32, ptr, [2 x ptr], ptr, i32, i32, i32, i32, i32, i32, i32 }
%struct.anon.20 = type { ptr, ptr }
%struct._GLFWlibraryWayland = type { ptr, ptr, ptr, ptr, ptr, ptr, ptr, ptr, ptr, ptr, ptr, ptr, ptr, ptr, ptr, ptr, ptr, ptr, ptr, i32, ptr, ptr, ptr, ptr, i32, ptr, ptr, ptr, ptr, ptr, i32, i32, i32, i32, i32, i32, i32, ptr, [256 x i16], [349 x i16], [349 x [5 x i8]], %struct.anon.21, ptr, ptr, %struct.anon.22, %struct.anon.23, %struct.anon.24, %struct.anon.25 }
%struct.anon.21 = type { ptr, ptr, ptr, ptr, ptr, i32, i32, i32, i32, i32, i32, i32, ptr, ptr, ptr, ptr, ptr, ptr, ptr, ptr, ptr, ptr, ptr, ptr, ptr, ptr, ptr, ptr, ptr, ptr, ptr, ptr }
%struct.anon.22 = type { ptr, ptr, ptr, ptr, ptr, ptr, ptr, ptr, ptr, ptr, ptr, ptr, ptr, ptr, ptr, ptr, ptr, ptr, ptr, ptr }
%struct.anon.23 = type { ptr, ptr, ptr, ptr, ptr }
%struct.anon.24 = type { ptr, ptr, ptr, ptr }
%struct.anon.25 = type { ptr, ptr, ptr, i32, ptr, ptr, ptr, ptr, ptr, ptr, ptr, ptr, ptr, ptr, ptr, ptr, ptr, ptr, ptr, ptr, ptr, ptr, ptr, ptr, ptr, ptr, ptr, ptr, ptr }
%struct._GLFWlibraryX11 = type { ptr, i32, i64, float, float, i64, i64, i32, ptr, ptr, i32, ptr, ptr, [349 x [5 x i8]], [256 x i16], [349 x i16], double, double, ptr, [2 x i32], i64, i64, i64, i64, i64, i64, i64, i64, i64, i64, i64, i64, i64, i64, i64, i64, i64, i64, i64, i64, i64, i64, i64, i64, i64, i64, i64, i64, i64, i64, i64, i64, i64, i64, i64, i64, i64, i64, i64, i64, i64, i64, i64, i64, i64, i64, i64, i64, i64, i64, %struct.anon.26, %struct.anon.27, %struct.anon.28, %struct.anon.29, %struct.anon.30, %struct.anon.31, %struct.anon.32, %struct.anon.33, %struct.anon.34, %struct.anon.35, %struct.anon.36, %struct.anon.37, %struct.anon.38 }
%struct.anon.26 = type { ptr, i32, ptr, ptr, ptr, ptr, ptr, ptr, ptr, ptr, ptr, ptr, ptr, ptr, ptr, ptr, ptr, ptr, ptr, ptr, ptr, ptr, ptr, ptr, ptr, ptr, ptr, ptr, ptr, ptr, ptr, ptr, ptr, ptr, ptr, ptr, ptr, ptr, ptr, ptr, ptr, ptr, ptr, ptr, ptr, ptr, ptr, ptr, ptr, ptr, ptr, ptr, ptr, ptr, ptr, ptr, ptr, ptr, ptr, ptr, ptr, ptr, ptr, ptr, ptr, ptr, ptr, ptr, ptr, ptr, ptr, ptr, ptr, ptr, ptr, ptr, ptr, ptr, ptr, ptr, ptr, ptr, ptr, ptr, ptr, ptr, ptr, ptr }
%struct.anon.27 = type { ptr, ptr, ptr, ptr }
%struct.anon.28 = type { i32, ptr, i32, i32, i32, i32, i32, i32, ptr, ptr, ptr, ptr, ptr, ptr, ptr, ptr, ptr, ptr, ptr, ptr, ptr, ptr, ptr, ptr, ptr }
%struct.anon.29 = type { i32, i32, i32, i32, i32, i32, i32, i32, ptr, ptr, ptr, ptr, ptr, ptr, ptr, ptr, ptr }
%struct.anon.30 = type { i32, i32, i32, i32, i32 }
%struct.anon.31 = type { i32, i64, i64 }
%struct.anon.32 = type { ptr, ptr, ptr, ptr, ptr, ptr, ptr }
%struct.anon.33 = type { i32, ptr, i32, i32, ptr, ptr, ptr }
%struct.anon.34 = type { ptr, ptr }
%struct.anon.35 = type { i32, ptr, i32, i32, ptr, ptr, ptr, ptr }
%struct.anon.36 = type { i32, ptr, i32, i32, i32, i32, i32, ptr, ptr }
%struct.anon.37 = type { i32, ptr, i32, i32, i32, i32, ptr, ptr, ptr }
%struct.anon.38 = type { i32, ptr, i32, i32, i32, i32, ptr, ptr, ptr, ptr }
%struct._GLFWlibraryNull = type { i32, i32, ptr, ptr, [121 x i16], [349 x i8] }
%struct._GLFWlibraryGLX = type { i32, i32, i32, i32, ptr, ptr, ptr, ptr, ptr, ptr, ptr, ptr, ptr, ptr, ptr, ptr, ptr, ptr, ptr, ptr, ptr, ptr, ptr, ptr, i32, i32, i32, i32, i32, i32, i32, i32, i32, i32, i32, i32 }
%struct._GLFWlibraryLinux = type { i32, i32, %struct.re_pattern_buffer, i32, i32 }
%struct.re_pattern_buffer = type { ptr, i64, i64, i64, ptr, ptr, i64, i8 }
%struct._GLFWmapping = type { [128 x i8], [33 x i8], [15 x %struct._GLFWmapelement], [6 x %struct._GLFWmapelement] }
%struct._GLFWmapelement = type { i8, i8, i8, i8 }

@_glfw = external global %struct._GLFWlibrary, align 8

; Function Attrs: nounwind uwtable
define internal i32 @isValidElementForJoystick(ptr noundef %0, ptr noundef %1) #0 {
  %3 = alloca i32, align 4
  %4 = alloca ptr, align 8
  %5 = alloca ptr, align 8
  store ptr %0, ptr %4, align 8, !tbaa !165
  store ptr %1, ptr %5, align 8, !tbaa !68
  %6 = load ptr, ptr %4, align 8, !tbaa !165
  %7 = getelementptr inbounds nuw %struct._GLFWmapelement, ptr %6, i32 0, i32 0
  %8 = load i8, ptr %7, align 1, !tbaa !166
  %9 = zext i8 %8 to i32
  %10 = icmp eq i32 %9, 3
  br i1 %10, label %11, label %22

11:                                               ; preds = %2
  %12 = load ptr, ptr %4, align 8, !tbaa !165
  %13 = getelementptr inbounds nuw %struct._GLFWmapelement, ptr %12, i32 0, i32 1
  %14 = load i8, ptr %13, align 1, !tbaa !168
  %15 = zext i8 %14 to i32
  %16 = ashr i32 %15, 4
  %17 = load ptr, ptr %5, align 8, !tbaa !68
  %18 = getelementptr inbounds nuw %struct._GLFWjoystick, ptr %17, i32 0, i32 7
  %19 = load i32, ptr %18, align 8, !tbaa !175
  %20 = icmp sge i32 %16, %19
  br i1 %20, label %21, label %22

21:                                               ; preds = %11
  store i32 0, ptr %3, align 4
  br label %57

22:                                               ; preds = %11, %2
  %23 = load ptr, ptr %4, align 8, !tbaa !165
  %24 = getelementptr inbounds nuw %struct._GLFWmapelement, ptr %23, i32 0, i32 0
  %25 = load i8, ptr %24, align 1, !tbaa !166
  %26 = zext i8 %25 to i32
  %27 = icmp eq i32 %26, 2
  br i1 %27, label %28, label %38

28:                                               ; preds = %22
  %29 = load ptr, ptr %4, align 8, !tbaa !165
  %30 = getelementptr inbounds nuw %struct._GLFWmapelement, ptr %29, i32 0, i32 1
  %31 = load i8, ptr %30, align 1, !tbaa !168
  %32 = zext i8 %31 to i32
  %33 = load ptr, ptr %5, align 8, !tbaa !68
  %34 = getelementptr inbounds nuw %struct._GLFWjoystick, ptr %33, i32 0, i32 5
  %35 = load i32, ptr %34, align 8, !tbaa !154
  %36 = icmp sge i32 %32, %35
  br i1 %36, label %37, label %38

37:                                               ; preds = %28
  store i32 0, ptr %3, align 4
  br label %57

38:                                               ; preds = %28, %22
  %39 = load ptr, ptr %4, align 8, !tbaa !165
  %40 = getelementptr inbounds nuw %struct._GLFWmapelement, ptr %39, i32 0, i32 0
  %41 = load i8, ptr %40, align 1, !tbaa !166
  %42 = zext i8 %41 to i32
  %43 = icmp eq i32 %42, 1
  br i1 %43, label %44, label %54

44:                                               ; preds = %38
  %45 = load ptr, ptr %4, align 8, !tbaa !165
  %46 = getelementptr inbounds nuw %struct._GLFWmapelement, ptr %45, i32 0, i32 1
  %47 = load i8, ptr %46, align 1, !tbaa !168
  %48 = zext i8 %47 to i32
  %49 = load ptr, ptr %5, align 8, !tbaa !68
  %50 = getelementptr inbounds nuw %struct._GLFWjoystick, ptr %49, i32 0, i32 3
  %51 = load i32, ptr %50, align 8, !tbaa !174
  %52 = icmp sge i32 %48, %51
  br i1 %52, label %53, label %54

53:                                               ; preds = %44
  store i32 0, ptr %3, align 4
  br label %57

54:                                               ; preds = %44, %38
  br label %55

55:                                               ; preds = %54
  br label %56

56:                                               ; preds = %55
  store i32 1, ptr %3, align 4
  br label %57

57:                                               ; preds = %56, %53, %37, %21
  %58 = load i32, ptr %3, align 4
  ret i32 %58
}

; Function Attrs: nounwind uwtable
define internal ptr @findMapping(ptr noundef %0) #0 {
  %2 = alloca ptr, align 8
  %3 = alloca ptr, align 8
  %4 = alloca i32, align 4
  %5 = alloca i32, align 4
  store ptr %0, ptr %3, align 8, !tbaa !159
  call void @llvm.lifetime.start.p0(i64 4, ptr %4) #8
  store i32 0, ptr %4, align 4, !tbaa !8
  br label %6

6:                                                ; preds = %26, %1
  %7 = load i32, ptr %4, align 4, !tbaa !8
  %8 = load i32, ptr getelementptr inbounds nuw (%struct._GLFWlibrary, ptr @_glfw, i32 0, i32 12), align 8, !tbaa !158
  %9 = icmp slt i32 %7, %8
  br i1 %9, label %10, label %29

10:                                               ; preds = %6
  %11 = load ptr, ptr getelementptr inbounds nuw (%struct._GLFWlibrary, ptr @_glfw, i32 0, i32 11), align 8, !tbaa !157
  %12 = load i32, ptr %4, align 4, !tbaa !8
  %13 = sext i32 %12 to i64
  %14 = getelementptr inbounds %struct._GLFWmapping, ptr %11, i64 %13
  %15 = getelementptr inbounds nuw %struct._GLFWmapping, ptr %14, i32 0, i32 1
  %16 = getelementptr inbounds [33 x i8], ptr %15, i64 0, i64 0
  %17 = load ptr, ptr %3, align 8, !tbaa !159
  %18 = call i32 @strcmp(ptr noundef %16, ptr noundef %17) #9
  %19 = icmp eq i32 %18, 0
  br i1 %19, label %20, label %25

20:                                               ; preds = %10
  %21 = load ptr, ptr getelementptr inbounds nuw (%struct._GLFWlibrary, ptr @_glfw, i32 0, i32 11), align 8, !tbaa !157
  %22 = load i32, ptr %4, align 4, !tbaa !8
  %23 = sext i32 %22 to i64
  %24 = getelementptr inbounds %struct._GLFWmapping, ptr %21, i64 %23
  store ptr %24, ptr %2, align 8
  store i32 1, ptr %5, align 4
  br label %30

25:                                               ; preds = %10
  br label %26

26:                                               ; preds = %25
  %27 = load i32, ptr %4, align 4, !tbaa !8
  %28 = add nsw i32 %27, 1
  store i32 %28, ptr %4, align 4, !tbaa !8
  br label %6

29:                                               ; preds = %6
  store ptr null, ptr %2, align 8
  store i32 1, ptr %5, align 4
  br label %30

30:                                               ; preds = %29, %20
  call void @llvm.lifetime.end.p0(i64 4, ptr %4) #8
  %31 = load ptr, ptr %2, align 8
  ret ptr %31
}

; Function Attrs: nounwind uwtable
define internal ptr @findValidMapping(ptr noundef %0) #0 {
  %2 = alloca ptr, align 8
  %3 = alloca ptr, align 8
  %4 = alloca ptr, align 8
  %5 = alloca i32, align 4
  %6 = alloca i32, align 4
  store ptr %0, ptr %3, align 8, !tbaa !68
  call void @llvm.lifetime.start.p0(i64 8, ptr %4) #8
  %7 = load ptr, ptr %3, align 8, !tbaa !68
  %8 = getelementptr inbounds nuw %struct._GLFWjoystick, ptr %7, i32 0, i32 10
  %9 = getelementptr inbounds [33 x i8], ptr %8, i64 0, i64 0
  %10 = call ptr @findMapping(ptr noundef %9)
  store ptr %10, ptr %4, align 8, !tbaa !160
  %11 = load ptr, ptr %4, align 8, !tbaa !160
  %12 = icmp ne ptr %11, null
  br i1 %12, label %13, label %55

13:                                               ; preds = %1
  call void @llvm.lifetime.start.p0(i64 4, ptr %5) #8
  store i32 0, ptr %5, align 4, !tbaa !8
  br label %14

14:                                               ; preds = %29, %13
  %15 = load i32, ptr %5, align 4, !tbaa !8
  %16 = icmp sle i32 %15, 14
  br i1 %16, label %17, label %32

17:                                               ; preds = %14
  %18 = load ptr, ptr %4, align 8, !tbaa !160
  %19 = getelementptr inbounds nuw %struct._GLFWmapping, ptr %18, i32 0, i32 2
  %20 = getelementptr inbounds [15 x %struct._GLFWmapelement], ptr %19, i64 0, i64 0
  %21 = load i32, ptr %5, align 4, !tbaa !8
  %22 = sext i32 %21 to i64
  %23 = getelementptr inbounds %struct._GLFWmapelement, ptr %20, i64 %22
  %24 = load ptr, ptr %3, align 8, !tbaa !68
  %25 = call i32 @isValidElementForJoystick(ptr noundef %23, ptr noundef %24)
  %26 = icmp ne i32 %25, 0
  br i1 %26, label %28, label %27

27:                                               ; preds = %17
  store ptr null, ptr %2, align 8
  store i32 1, ptr %6, align 4
  br label %52

28:                                               ; preds = %17
  br label %29

29:                                               ; preds = %28
  %30 = load i32, ptr %5, align 4, !tbaa !8
  %31 = add nsw i32 %30, 1
  store i32 %31, ptr %5, align 4, !tbaa !8
  br label %14

32:                                               ; preds = %14
  store i32 0, ptr %5, align 4, !tbaa !8
  br label %33

33:                                               ; preds = %48, %32
  %34 = load i32, ptr %5, align 4, !tbaa !8
  %35 = icmp sle i32 %34, 5
  br i1 %35, label %36, label %51

36:                                               ; preds = %33
  %37 = load ptr, ptr %4, align 8, !tbaa !160
  %38 = getelementptr inbounds nuw %struct._GLFWmapping, ptr %37, i32 0, i32 3
  %39 = getelementptr inbounds [6 x %struct._GLFWmapelement], ptr %38, i64 0, i64 0
  %40 = load i32, ptr %5, align 4, !tbaa !8
  %41 = sext i32 %40 to i64
  %42 = getelementptr inbounds %struct._GLFWmapelement, ptr %39, i64 %41
  %43 = load ptr, ptr %3, align 8, !tbaa !68
  %44 = call i32 @isValidElementForJoystick(ptr noundef %42, ptr noundef %43)
  %45 = icmp ne i32 %44, 0
  br i1 %45, label %47, label %46

46:                                               ; preds = %36
  store ptr null, ptr %2, align 8
  store i32 1, ptr %6, align 4
  br label %52

47:                                               ; preds = %36
  br label %48

48:                                               ; preds = %47
  %49 = load i32, ptr %5, align 4, !tbaa !8
  %50 = add nsw i32 %49, 1
  store i32 %50, ptr %5, align 4, !tbaa !8
  br label %33

51:                                               ; preds = %33
  store i32 0, ptr %6, align 4
  br label %52

52:                                               ; preds = %51, %46, %27
  call void @llvm.lifetime.end.p0(i64 4, ptr %5) #8
  %53 = load i32, ptr %6, align 4
  switch i32 %53, label %57 [
    i32 0, label %54
  ]

54:                                               ; preds = %52
  br label %55

55:                                               ; preds = %54, %1
  %56 = load ptr, ptr %4, align 8, !tbaa !160
  store ptr %56, ptr %2, align 8
  store i32 1, ptr %6, align 4
  br label %57

57:                                               ; preds = %55, %52
  call void @llvm.lifetime.end.p0(i64 8, ptr %4) #8
  %58 = load ptr, ptr %2, align 8
  ret ptr %58
}