; Function Attrs: nofree nounwind memory(read, inaccessiblemem: none) uwtable
define internal fastcc ptr @findValidMapping(ptr noundef readonly captures(none) %0) unnamed_addr #5 {
  %2 = getelementptr inbounds nuw i8, ptr %0, i64 192
  %3 = load i32, ptr getelementptr inbounds nuw (i8, ptr @_glfw, i64 133400), align 8, !tbaa !150
  %4 = icmp sgt i32 %3, 0
  br i1 %4, label %.lr.ph.i, label %.critedge

.lr.ph.i:                                         ; preds = %1
  %5 = load ptr, ptr getelementptr inbounds nuw (i8, ptr @_glfw, i64 133392), align 8, !tbaa !149
  %wide.trip.count.i = zext nneg i32 %3 to i64
  br label %7

6:                                                ; preds = %7
  %indvars.iv.next.i = add nuw nsw i64 %indvars.iv.i, 1
  %exitcond.not.i = icmp eq i64 %indvars.iv.next.i, %wide.trip.count.i
  br i1 %exitcond.not.i, label %.critedge, label %7

7:                                                ; preds = %6, %.lr.ph.i
  %indvars.iv.i = phi i64 [ 0, %.lr.ph.i ], [ %indvars.iv.next.i, %6 ]
  %8 = getelementptr inbounds nuw %struct._GLFWmapping, ptr %5, i64 %indvars.iv.i
  %9 = getelementptr inbounds nuw i8, ptr %8, i64 128
  %10 = tail call i32 @strcmp(ptr noundef nonnull dereferenceable(1) %9, ptr noundef nonnull readonly dereferenceable(1) %2) #13
  %11 = icmp eq i32 %10, 0
  br i1 %11, label %findMapping.exit.preheader, label %6

findMapping.exit.preheader:                       ; preds = %7
  %12 = getelementptr inbounds nuw i8, ptr %8, i64 161
  %13 = getelementptr inbounds nuw i8, ptr %0, i64 16
  %14 = getelementptr inbounds nuw i8, ptr %0, i64 32
  %15 = getelementptr inbounds nuw i8, ptr %0, i64 48
  br label %17

.preheader:                                       ; preds = %isValidElementForJoystick.exit
  %16 = getelementptr inbounds nuw i8, ptr %8, i64 221
  br label %36

17:                                               ; preds = %findMapping.exit.preheader, %isValidElementForJoystick.exit
  %indvars.iv = phi i64 [ 0, %findMapping.exit.preheader ], [ %indvars.iv.next, %isValidElementForJoystick.exit ]
  %18 = getelementptr inbounds nuw %struct._GLFWmapelement, ptr %12, i64 %indvars.iv
  %19 = load i8, ptr %18, align 1, !tbaa !156
  switch i8 %19, label %isValidElementForJoystick.exit [
    i8 3, label %20
    i8 2, label %26
    i8 1, label %31
  ]

20:                                               ; preds = %17
  %21 = getelementptr inbounds nuw i8, ptr %18, i64 1
  %22 = load i8, ptr %21, align 1, !tbaa !158
  %23 = lshr i8 %22, 4
  %24 = zext nneg i8 %23 to i32
  %25 = load i32, ptr %15, align 8, !tbaa !165
  %.not.i = icmp sgt i32 %25, %24
  br i1 %.not.i, label %isValidElementForJoystick.exit, label %.critedge

26:                                               ; preds = %17
  %27 = getelementptr inbounds nuw i8, ptr %18, i64 1
  %28 = load i8, ptr %27, align 1, !tbaa !158
  %29 = zext i8 %28 to i32
  %30 = load i32, ptr %14, align 8, !tbaa !147
  %.not9.i = icmp sgt i32 %30, %29
  br i1 %.not9.i, label %isValidElementForJoystick.exit, label %.critedge

31:                                               ; preds = %17
  %32 = getelementptr inbounds nuw i8, ptr %18, i64 1
  %33 = load i8, ptr %32, align 1, !tbaa !158
  %34 = zext i8 %33 to i32
  %35 = load i32, ptr %13, align 8, !tbaa !164
  %.not10.i = icmp sgt i32 %35, %34
  br i1 %.not10.i, label %isValidElementForJoystick.exit, label %.critedge

isValidElementForJoystick.exit:                   ; preds = %31, %26, %20, %17
  %indvars.iv.next = add nuw nsw i64 %indvars.iv, 1
  %exitcond.not = icmp eq i64 %indvars.iv.next, 15
  br i1 %exitcond.not, label %.preheader, label %17

36:                                               ; preds = %.preheader, %isValidElementForJoystick.exit25
  %indvars.iv41 = phi i64 [ 0, %.preheader ], [ %indvars.iv.next42, %isValidElementForJoystick.exit25 ]
  %37 = getelementptr inbounds nuw %struct._GLFWmapelement, ptr %16, i64 %indvars.iv41
  %38 = load i8, ptr %37, align 1, !tbaa !156
  switch i8 %38, label %isValidElementForJoystick.exit25 [
    i8 3, label %39
    i8 2, label %45
    i8 1, label %50
  ]

39:                                               ; preds = %36
  %40 = getelementptr inbounds nuw i8, ptr %37, i64 1
  %41 = load i8, ptr %40, align 1, !tbaa !158
  %42 = lshr i8 %41, 4
  %43 = zext nneg i8 %42 to i32
  %44 = load i32, ptr %15, align 8, !tbaa !165
  %.not.i24 = icmp sgt i32 %44, %43
  br i1 %.not.i24, label %isValidElementForJoystick.exit25, label %.critedge

45:                                               ; preds = %36
  %46 = getelementptr inbounds nuw i8, ptr %37, i64 1
  %47 = load i8, ptr %46, align 1, !tbaa !158
  %48 = zext i8 %47 to i32
  %49 = load i32, ptr %14, align 8, !tbaa !147
  %.not9.i23 = icmp sgt i32 %49, %48
  br i1 %.not9.i23, label %isValidElementForJoystick.exit25, label %.critedge

50:                                               ; preds = %36
  %51 = getelementptr inbounds nuw i8, ptr %37, i64 1
  %52 = load i8, ptr %51, align 1, !tbaa !158
  %53 = zext i8 %52 to i32
  %54 = load i32, ptr %13, align 8, !tbaa !164
  %.not10.i20 = icmp sgt i32 %54, %53
  br i1 %.not10.i20, label %isValidElementForJoystick.exit25, label %.critedge

isValidElementForJoystick.exit25:                 ; preds = %50, %45, %39, %36
  %indvars.iv.next42 = add nuw nsw i64 %indvars.iv41, 1
  %exitcond44.not = icmp eq i64 %indvars.iv.next42, 6
  br i1 %exitcond44.not, label %.critedge, label %36

.critedge:                                        ; preds = %6, %31, %26, %20, %50, %45, %39, %isValidElementForJoystick.exit25, %1
  %.116 = phi ptr [ null, %1 ], [ null, %50 ], [ null, %45 ], [ null, %39 ], [ %8, %isValidElementForJoystick.exit25 ], [ null, %20 ], [ null, %26 ], [ null, %31 ], [ null, %6 ]
  ret ptr %.116
}